target datalayout = "e-m:e-p270:32:32-p271:32:32-p272:64:64-i64:64-i128:128-f80:128-n8:16:32:64-S128"
target triple = "x86_64-pc-linux-gnu"

%struct.hf_register_info = type { ptr, %struct._header_field_info }
%struct._header_field_info = type { ptr, ptr, i32, i32, ptr, i64, ptr, i32, i32, i32, i32, ptr }

@proto_register_aim.hf_bos = internal global [1 x %struct.hf_register_info] [%struct.hf_register_info { ptr @hf_aim_bos_class, %struct._header_field_info { ptr @.str.123, ptr @.str.124, i32 7, i32 2, ptr null, i64 0, ptr null, i32 -1, i32 0, i32 0, i32 -1, ptr null } }], align 16
@proto_register_aim.hf_chat = internal global [1 x %struct.hf_register_info] [%struct.hf_register_info { ptr @hf_aim_chat_screen_name, %struct._header_field_info { ptr @.str.126, ptr @.str.127, i32 26, i32 0, ptr null, i64 0, ptr null, i32 -1, i32 0, i32 0, i32 -1, ptr null } }], align 16
@proto_register_aim.hf_userlookup = internal global [1 x %struct.hf_register_info] [%struct.hf_register_info { ptr @hf_aim_userlookup_email, %struct._header_field_info { ptr @.str.317, ptr @.str.318, i32 26, i32 0, ptr null, i64 0, ptr null, i32 -1, i32 0, i32 0, i32 -1, ptr null } }], align 16
@.str.321 = private unnamed_addr constant [22 x i8] c"AOL Instant Messenger\00", align 1
@.str.322 = private unnamed_addr constant [4 x i8] c"AIM\00", align 1
@.str.323 = private unnamed_addr constant [4 x i8] c"aim\00", align 1
@proto_aim = internal global i32 0, align 4
@.str.324 = private unnamed_addr constant [19 x i8] c"AIM Administrative\00", align 1
@.str.325 = private unnamed_addr constant [19 x i8] c"AIM Administration\00", align 1
@.str.326 = private unnamed_addr constant [10 x i8] c"aim_admin\00", align 1
@proto_aim_admin = internal global i32 0, align 4
@.str.327 = private unnamed_addr constant [19 x i8] c"AIM Advertisements\00", align 1
@.str.328 = private unnamed_addr constant [12 x i8] c"aim_adverts\00", align 1
@proto_aim_adverts = internal global i32 0, align 4
@.str.329 = private unnamed_addr constant [31 x i8] c"AIM Privacy Management Service\00", align 1
@.str.330 = private unnamed_addr constant [8 x i8] c"AIM BOS\00", align 1
@.str.331 = private unnamed_addr constant [8 x i8] c"aim_bos\00", align 1
@proto_aim_bos = internal global i32 0, align 4
@.str.332 = private unnamed_addr constant [22 x i8] c"AIM Buddylist Service\00", align 1
@.str.333 = private unnamed_addr constant [14 x i8] c"AIM Buddylist\00", align 1
@.str.334 = private unnamed_addr constant [14 x i8] c"aim_buddylist\00", align 1
@proto_aim_buddylist = internal global i32 0, align 4
@.str.335 = private unnamed_addr constant [17 x i8] c"AIM Chat Service\00", align 1
@.str.336 = private unnamed_addr constant [9 x i8] c"AIM Chat\00", align 1
@.str.337 = private unnamed_addr constant [9 x i8] c"aim_chat\00", align 1
@proto_aim_chat = internal global i32 0, align 4
@.str.338 = private unnamed_addr constant [20 x i8] c"AIM Chat Navigation\00", align 1
@.str.339 = private unnamed_addr constant [12 x i8] c"AIM ChatNav\00", align 1
@.str.340 = private unnamed_addr constant [12 x i8] c"aim_chatnav\00", align 1
@proto_aim_chatnav = internal global i32 0, align 4
@.str.341 = private unnamed_addr constant [21 x i8] c"AIM Directory Search\00", align 1
@.str.342 = private unnamed_addr constant [14 x i8] c"AIM Directory\00", align 1
@.str.343 = private unnamed_addr constant [8 x i8] c"aim_dir\00", align 1
@proto_aim_directory = internal global i32 0, align 4
@.str.344 = private unnamed_addr constant [11 x i8] c"AIM E-mail\00", align 1
@.str.345 = private unnamed_addr constant [10 x i8] c"AIM Email\00", align 1
@.str.346 = private unnamed_addr constant [10 x i8] c"aim_email\00", align 1
@proto_aim_email = internal global i32 0, align 4
@.str.347 = private unnamed_addr constant [20 x i8] c"AIM Generic Service\00", align 1
@.str.348 = private unnamed_addr constant [12 x i8] c"AIM Generic\00", align 1
@.str.349 = private unnamed_addr constant [12 x i8] c"aim_generic\00", align 1
@proto_aim_generic = internal global i32 0, align 4
@.str.350 = private unnamed_addr constant [8 x i8] c"AIM ICQ\00", align 1
@.str.351 = private unnamed_addr constant [8 x i8] c"aim_icq\00", align 1
@proto_aim_icq = internal global i32 0, align 4
@.str.352 = private unnamed_addr constant [23 x i8] c"AIM Invitation Service\00", align 1
@.str.353 = private unnamed_addr constant [15 x i8] c"AIM Invitation\00", align 1
@.str.354 = private unnamed_addr constant [15 x i8] c"aim_invitation\00", align 1
@proto_aim_invitation = internal global i32 0, align 4
@.str.355 = private unnamed_addr constant [13 x i8] c"AIM Location\00", align 1
@.str.356 = private unnamed_addr constant [13 x i8] c"aim_location\00", align 1
@proto_aim_location = internal global i32 0, align 4
@.str.357 = private unnamed_addr constant [14 x i8] c"AIM Messaging\00", align 1
@.str.358 = private unnamed_addr constant [14 x i8] c"aim_messaging\00", align 1
@proto_aim_messaging = internal global i32 0, align 4
@.str.359 = private unnamed_addr constant [10 x i8] c"AIM Popup\00", align 1
@.str.360 = private unnamed_addr constant [10 x i8] c"aim_popup\00", align 1
@proto_aim_popup = internal global i32 0, align 4
@.str.361 = private unnamed_addr constant [11 x i8] c"AIM Signon\00", align 1
@.str.362 = private unnamed_addr constant [11 x i8] c"aim_signon\00", align 1
@proto_aim_signon = internal global i32 0, align 4
@.str.363 = private unnamed_addr constant [21 x i8] c"AIM Server Side Info\00", align 1
@.str.364 = private unnamed_addr constant [8 x i8] c"AIM SSI\00", align 1
@.str.365 = private unnamed_addr constant [8 x i8] c"aim_ssi\00", align 1
@proto_aim_ssi = internal global i32 0, align 4
@.str.366 = private unnamed_addr constant [23 x i8] c"AIM Server Side Themes\00", align 1
@.str.367 = private unnamed_addr constant [8 x i8] c"AIM SST\00", align 1
@.str.368 = private unnamed_addr constant [8 x i8] c"aim_sst\00", align 1
@proto_aim_sst = internal global i32 0, align 4
@.str.369 = private unnamed_addr constant [15 x i8] c"AIM Statistics\00", align 1
@.str.370 = private unnamed_addr constant [10 x i8] c"AIM Stats\00", align 1
@.str.371 = private unnamed_addr constant [10 x i8] c"aim_stats\00", align 1
@proto_aim_stats = internal global i32 0, align 4
@.str.372 = private unnamed_addr constant [14 x i8] c"AIM Translate\00", align 1
@.str.373 = private unnamed_addr constant [14 x i8] c"aim_translate\00", align 1
@proto_aim_translate = internal global i32 0, align 4
@.str.374 = private unnamed_addr constant [16 x i8] c"AIM User Lookup\00", align 1
@.str.375 = private unnamed_addr constant [11 x i8] c"aim_lookup\00", align 1
@proto_aim_userlookup = internal global i32 0, align 4
@aim_handle = internal global ptr null, align 8
@.str.376 = private unnamed_addr constant [10 x i8] c"desegment\00", align 1
@.str.377 = private unnamed_addr constant [55 x i8] c"Reassemble AIM messages spanning multiple TCP segments\00", align 1
@.str.378 = private unnamed_addr constant [204 x i8] c"Whether the AIM dissector should reassemble messages spanning multiple TCP segments. To use this option, you must also enable \22Allow subdissectors to reassemble TCP streams\22 in the TCP protocol settings.\00", align 1
@aim_desegment = internal global i8 1, align 1

; Function Attrs: null_pointer_is_valid sspstrong uwtable
define hidden void @proto_register_aim() #0 {
  %1 = alloca ptr, align 8
  %2 = alloca ptr, align 8
  call void @llvm.lifetime.start.p0(i64 8, ptr %1) #13
  call void @llvm.lifetime.start.p0(i64 8, ptr %2) #13
  %3 = call i32 @proto_register_protocol(ptr noundef @.str.321, ptr noundef @.str.322, ptr noundef @.str.323)
  store i32 %3, ptr @proto_aim, align 4
  %4 = call i32 @proto_register_protocol(ptr noundef @.str.324, ptr noundef @.str.325, ptr noundef @.str.326)
  store i32 %4, ptr @proto_aim_admin, align 4
  %5 = call i32 @proto_register_protocol(ptr noundef @.str.327, ptr noundef @.str.327, ptr noundef @.str.328)
  store i32 %5, ptr @proto_aim_adverts, align 4
  %6 = call i32 @proto_register_protocol(ptr noundef @.str.329, ptr noundef @.str.330, ptr noundef @.str.331)
  store i32 %6, ptr @proto_aim_bos, align 4
  %7 = call i32 @proto_register_protocol(ptr noundef @.str.332, ptr noundef @.str.333, ptr noundef @.str.334)
  store i32 %7, ptr @proto_aim_buddylist, align 4
  %8 = call i32 @proto_register_protocol(ptr noundef @.str.335, ptr noundef @.str.336, ptr noundef @.str.337)
  store i32 %8, ptr @proto_aim_chat, align 4
  %9 = call i32 @proto_register_protocol(ptr noundef @.str.338, ptr noundef @.str.339, ptr noundef @.str.340)
  store i32 %9, ptr @proto_aim_chatnav, align 4
  %10 = call i32 @proto_register_protocol(ptr noundef @.str.341, ptr noundef @.str.342, ptr noundef @.str.343)
  store i32 %10, ptr @proto_aim_directory, align 4
  %11 = call i32 @proto_register_protocol(ptr noundef @.str.344, ptr noundef @.str.345, ptr noundef @.str.346)
  store i32 %11, ptr @proto_aim_email, align 4
  %12 = call i32 @proto_register_protocol(ptr noundef @.str.347, ptr noundef @.str.348, ptr noundef @.str.349)
  store i32 %12, ptr @proto_aim_generic, align 4
  %13 = call i32 @proto_register_protocol(ptr noundef @.str.350, ptr noundef @.str.350, ptr noundef @.str.351)
  store i32 %13, ptr @proto_aim_icq, align 4
  %14 = call i32 @proto_register_protocol(ptr noundef @.str.352, ptr noundef @.str.353, ptr noundef @.str.354)
  store i32 %14, ptr @proto_aim_invitation, align 4
  %15 = call i32 @proto_register_protocol(ptr noundef @.str.355, ptr noundef @.str.355, ptr noundef @.str.356)
  store i32 %15, ptr @proto_aim_location, align 4
  %16 = call i32 @proto_register_protocol(ptr noundef @.str.357, ptr noundef @.str.357, ptr noundef @.str.358)
  store i32 %16, ptr @proto_aim_messaging, align 4
  %17 = call i32 @proto_register_protocol(ptr noundef @.str.359, ptr noundef @.str.359, ptr noundef @.str.360)
  store i32 %17, ptr @proto_aim_popup, align 4
  %18 = call i32 @proto_register_protocol(ptr noundef @.str.361, ptr noundef @.str.361, ptr noundef @.str.362)
  store i32 %18, ptr @proto_aim_signon, align 4
  %19 = call i32 @proto_register_protocol(ptr noundef @.str.363, ptr noundef @.str.364, ptr noundef @.str.365)
  store i32 %19, ptr @proto_aim_ssi, align 4
  %20 = call i32 @proto_register_protocol(ptr noundef @.str.366, ptr noundef @.str.367, ptr noundef @.str.368)
  store i32 %20, ptr @proto_aim_sst, align 4
  %21 = call i32 @proto_register_protocol(ptr noundef @.str.369, ptr noundef @.str.370, ptr noundef @.str.371)
  store i32 %21, ptr @proto_aim_stats, align 4
  %22 = call i32 @proto_register_protocol(ptr noundef @.str.372, ptr noundef @.str.372, ptr noundef @.str.373)
  store i32 %22, ptr @proto_aim_translate, align 4
  %23 = call i32 @proto_register_protocol(ptr noundef @.str.374, ptr noundef @.str.374, ptr noundef @.str.375)
  store i32 %23, ptr @proto_aim_userlookup, align 4
  %24 = load i32, ptr @proto_aim, align 4
  call void @proto_register_field_array(i32 noundef %24, ptr noundef @proto_register_aim.hf, i32 noundef 62)
  %25 = load i32, ptr @proto_aim_admin, align 4
  call void @proto_register_field_array(i32 noundef %25, ptr noundef @proto_register_aim.hf_admin, i32 noundef 4)
  %26 = load i32, ptr @proto_aim_bos, align 4
  call void @proto_register_field_array(i32 noundef %26, ptr noundef @proto_register_aim.hf_bos, i32 noundef 1)
  %27 = load i32, ptr @proto_aim_buddylist, align 4
  call void @proto_register_field_array(i32 noundef %27, ptr noundef @proto_register_aim.hf_buddylist, i32 noundef 1)
  %28 = load i32, ptr @proto_aim_chat, align 4
  call void @proto_register_field_array(i32 noundef %28, ptr noundef @proto_register_aim.hf_chat, i32 noundef 1)
  %29 = load i32, ptr @proto_aim_generic, align 4
  call void @proto_register_field_array(i32 noundef %29, ptr noundef @proto_register_aim.hf_generic, i32 noundef 33)
  %30 = load i32, ptr @proto_aim_icq, align 4
  call void @proto_register_field_array(i32 noundef %30, ptr noundef @proto_register_aim.hf_icq, i32 noundef 6)
  %31 = load i32, ptr @proto_aim_location, align 4
  call void @proto_register_field_array(i32 noundef %31, ptr noundef @proto_register_aim.hf_location, i32 noundef 4)
  %32 = load i32, ptr @proto_aim_messaging, align 4
  call void @proto_register_field_array(i32 noundef %32, ptr noundef @proto_register_aim.hf_messaging, i32 noundef 36)
  %33 = load i32, ptr @proto_aim_signon, align 4
  call void @proto_register_field_array(i32 noundef %33, ptr noundef @proto_register_aim.hf_signon, i32 noundef 3)
  %34 = load i32, ptr @proto_aim_ssi, align 4
  call void @proto_register_field_array(i32 noundef %34, ptr noundef @proto_register_aim.hf_ssi, i32 noundef 14)
  %35 = load i32, ptr @proto_aim_sst, align 4
  call void @proto_register_field_array(i32 noundef %35, ptr noundef @proto_register_aim.hf_sst, i32 noundef 6)
  %36 = load i32, ptr @proto_aim_userlookup, align 4
  call void @proto_register_field_array(i32 noundef %36, ptr noundef @proto_register_aim.hf_userlookup, i32 noundef 1)
  call void @proto_register_subtree_array(ptr noundef @proto_register_aim.ett, i32 noundef 46)
  %37 = load i32, ptr @proto_aim, align 4
  %38 = call ptr @expert_register_protocol(i32 noundef %37)
  store ptr %38, ptr %2, align 8
  %39 = load ptr, ptr %2, align 8
  call void @expert_register_field_array(ptr noundef %39, ptr noundef @proto_register_aim.ei, i32 noundef 1)
  %40 = load i32, ptr @proto_aim, align 4
  %41 = call ptr @register_dissector(ptr noundef @.str.323, ptr noundef @dissect_aim, i32 noundef %40)
  store ptr %41, ptr @aim_handle, align 8
  %42 = load i32, ptr @proto_aim, align 4
  %43 = call ptr @prefs_register_protocol(i32 noundef %42, ptr noundef null)
  store ptr %43, ptr %1, align 8
  %44 = load ptr, ptr %1, align 8
  call void @prefs_register_bool_preference(ptr noundef %44, ptr noundef @.str.376, ptr noundef @.str.377, ptr noundef @.str.378, ptr noundef @aim_desegment)
  call void @register_shutdown_routine(ptr noundef @aim_shutdown)
  call void @llvm.lifetime.end.p0(i64 8, ptr %2) #13
  call void @llvm.lifetime.end.p0(i64 8, ptr %1) #13
  ret void
}