; Function Attrs: null_pointer_is_valid sspstrong uwtable
define hidden void @proto_register_aim() local_unnamed_addr #0 {
  %1 = tail call i32 @proto_register_protocol(ptr noundef nonnull @.str.321, ptr noundef nonnull @.str.322, ptr noundef nonnull @.str.323)
  store i32 %1, ptr @proto_aim, align 4
  %2 = tail call i32 @proto_register_protocol(ptr noundef nonnull @.str.324, ptr noundef nonnull @.str.325, ptr noundef nonnull @.str.326)
  store i32 %2, ptr @proto_aim_admin, align 4
  %3 = tail call i32 @proto_register_protocol(ptr noundef nonnull @.str.327, ptr noundef nonnull @.str.327, ptr noundef nonnull @.str.328)
  store i32 %3, ptr @proto_aim_adverts, align 4
  %4 = tail call i32 @proto_register_protocol(ptr noundef nonnull @.str.329, ptr noundef nonnull @.str.330, ptr noundef nonnull @.str.331)
  store i32 %4, ptr @proto_aim_bos, align 4
  %5 = tail call i32 @proto_register_protocol(ptr noundef nonnull @.str.332, ptr noundef nonnull @.str.333, ptr noundef nonnull @.str.334)
  store i32 %5, ptr @proto_aim_buddylist, align 4
  %6 = tail call i32 @proto_register_protocol(ptr noundef nonnull @.str.335, ptr noundef nonnull @.str.336, ptr noundef nonnull @.str.337)
  store i32 %6, ptr @proto_aim_chat, align 4
  %7 = tail call i32 @proto_register_protocol(ptr noundef nonnull @.str.338, ptr noundef nonnull @.str.339, ptr noundef nonnull @.str.340)
  store i32 %7, ptr @proto_aim_chatnav, align 4
  %8 = tail call i32 @proto_register_protocol(ptr noundef nonnull @.str.341, ptr noundef nonnull @.str.342, ptr noundef nonnull @.str.343)
  store i32 %8, ptr @proto_aim_directory, align 4
  %9 = tail call i32 @proto_register_protocol(ptr noundef nonnull @.str.344, ptr noundef nonnull @.str.345, ptr noundef nonnull @.str.346)
  store i32 %9, ptr @proto_aim_email, align 4
  %10 = tail call i32 @proto_register_protocol(ptr noundef nonnull @.str.347, ptr noundef nonnull @.str.348, ptr noundef nonnull @.str.349)
  store i32 %10, ptr @proto_aim_generic, align 4
  %11 = tail call i32 @proto_register_protocol(ptr noundef nonnull @.str.350, ptr noundef nonnull @.str.350, ptr noundef nonnull @.str.351)
  store i32 %11, ptr @proto_aim_icq, align 4
  %12 = tail call i32 @proto_register_protocol(ptr noundef nonnull @.str.352, ptr noundef nonnull @.str.353, ptr noundef nonnull @.str.354)
  store i32 %12, ptr @proto_aim_invitation, align 4
  %13 = tail call i32 @proto_register_protocol(ptr noundef nonnull @.str.355, ptr noundef nonnull @.str.355, ptr noundef nonnull @.str.356)
  store i32 %13, ptr @proto_aim_location, align 4
  %14 = tail call i32 @proto_register_protocol(ptr noundef nonnull @.str.357, ptr noundef nonnull @.str.357, ptr noundef nonnull @.str.358)
  store i32 %14, ptr @proto_aim_messaging, align 4
  %15 = tail call i32 @proto_register_protocol(ptr noundef nonnull @.str.359, ptr noundef nonnull @.str.359, ptr noundef nonnull @.str.360)
  store i32 %15, ptr @proto_aim_popup, align 4
  %16 = tail call i32 @proto_register_protocol(ptr noundef nonnull @.str.361, ptr noundef nonnull @.str.361, ptr noundef nonnull @.str.362)
  store i32 %16, ptr @proto_aim_signon, align 4
  %17 = tail call i32 @proto_register_protocol(ptr noundef nonnull @.str.363, ptr noundef nonnull @.str.364, ptr noundef nonnull @.str.365)
  store i32 %17, ptr @proto_aim_ssi, align 4
  %18 = tail call i32 @proto_register_protocol(ptr noundef nonnull @.str.366, ptr noundef nonnull @.str.367, ptr noundef nonnull @.str.368)
  store i32 %18, ptr @proto_aim_sst, align 4
  %19 = tail call i32 @proto_register_protocol(ptr noundef nonnull @.str.369, ptr noundef nonnull @.str.370, ptr noundef nonnull @.str.371)
  store i32 %19, ptr @proto_aim_stats, align 4
  %20 = tail call i32 @proto_register_protocol(ptr noundef nonnull @.str.372, ptr noundef nonnull @.str.372, ptr noundef nonnull @.str.373)
  store i32 %20, ptr @proto_aim_translate, align 4
  %21 = tail call i32 @proto_register_protocol(ptr noundef nonnull @.str.374, ptr noundef nonnull @.str.374, ptr noundef nonnull @.str.375)
  store i32 %21, ptr @proto_aim_userlookup, align 4
  %22 = load i32, ptr @proto_aim, align 4
  tail call void @proto_register_field_array(i32 noundef %22, ptr noundef nonnull @proto_register_aim.hf, i32 noundef 62)
  %23 = load i32, ptr @proto_aim_admin, align 4
  tail call void @proto_register_field_array(i32 noundef %23, ptr noundef nonnull @proto_register_aim.hf_admin, i32 noundef 4)
  %24 = load i32, ptr @proto_aim_bos, align 4
  tail call void @proto_register_field_array(i32 noundef %24, ptr noundef nonnull @proto_register_aim.hf_bos, i32 noundef 1)
  %25 = load i32, ptr @proto_aim_buddylist, align 4
  tail call void @proto_register_field_array(i32 noundef %25, ptr noundef nonnull @proto_register_aim.hf_buddylist, i32 noundef 1)
  %26 = load i32, ptr @proto_aim_chat, align 4
  tail call void @proto_register_field_array(i32 noundef %26, ptr noundef nonnull @proto_register_aim.hf_chat, i32 noundef 1)
  %27 = load i32, ptr @proto_aim_generic, align 4
  tail call void @proto_register_field_array(i32 noundef %27, ptr noundef nonnull @proto_register_aim.hf_generic, i32 noundef 33)
  %28 = load i32, ptr @proto_aim_icq, align 4
  tail call void @proto_register_field_array(i32 noundef %28, ptr noundef nonnull @proto_register_aim.hf_icq, i32 noundef 6)
  %29 = load i32, ptr @proto_aim_location, align 4
  tail call void @proto_register_field_array(i32 noundef %29, ptr noundef nonnull @proto_register_aim.hf_location, i32 noundef 4)
  %30 = load i32, ptr @proto_aim_messaging, align 4
  tail call void @proto_register_field_array(i32 noundef %30, ptr noundef nonnull @proto_register_aim.hf_messaging, i32 noundef 36)
  %31 = load i32, ptr @proto_aim_signon, align 4
  tail call void @proto_register_field_array(i32 noundef %31, ptr noundef nonnull @proto_register_aim.hf_signon, i32 noundef 3)
  %32 = load i32, ptr @proto_aim_ssi, align 4
  tail call void @proto_register_field_array(i32 noundef %32, ptr noundef nonnull @proto_register_aim.hf_ssi, i32 noundef 14)
  %33 = load i32, ptr @proto_aim_sst, align 4
  tail call void @proto_register_field_array(i32 noundef %33, ptr noundef nonnull @proto_register_aim.hf_sst, i32 noundef 6)
  %34 = load i32, ptr @proto_aim_userlookup, align 4
  tail call void @proto_register_field_array(i32 noundef %34, ptr noundef nonnull @proto_register_aim.hf_userlookup, i32 noundef 1)
  tail call void @proto_register_subtree_array(ptr noundef nonnull @proto_register_aim.ett, i32 noundef 46)
  %35 = load i32, ptr @proto_aim, align 4
  %36 = tail call ptr @expert_register_protocol(i32 noundef %35)
  tail call void @expert_register_field_array(ptr noundef %36, ptr noundef nonnull @proto_register_aim.ei, i32 noundef 1)
  %37 = load i32, ptr @proto_aim, align 4
  %38 = tail call ptr @register_dissector(ptr noundef nonnull @.str.323, ptr noundef nonnull @dissect_aim, i32 noundef %37)
  store ptr %38, ptr @aim_handle, align 8
  %39 = load i32, ptr @proto_aim, align 4
  %40 = tail call ptr @prefs_register_protocol(i32 noundef %39, ptr noundef null)
  tail call void @prefs_register_bool_preference(ptr noundef %40, ptr noundef nonnull @.str.376, ptr noundef nonnull @.str.377, ptr noundef nonnull @.str.378, ptr noundef nonnull @aim_desegment)
  tail call void @register_shutdown_routine(ptr noundef nonnull @aim_shutdown)
  ret void
}